target datalayout = "e-m:e-p270:32:32-p271:32:32-p272:64:64-i64:64-i128:128-f80:128-n8:16:32:64-S128"
target triple = "x86_64-pc-linux-gnu"

%struct.AVFormatContext = type { ptr, ptr, ptr, ptr, ptr, i32, i32, ptr, i32, ptr, i32, ptr, ptr, i64, i64, i64, i32, i32, i32, i64, i64, ptr, i32, i32, ptr, i32, i32, i32, i32, ptr, i64, i32, i32, %struct.AVIOInterruptCB, i32, i32, i32, i32, i64, i32, i32, i32, i32, i32, i32, i32, i32, i32, i32, i32, i32, i64, i32, i32, i32, i32, i32, ptr, ptr, ptr, ptr, i32, ptr, ptr, ptr, ptr, i32, ptr, ptr, i64, ptr, ptr, ptr, i64 }
%struct.AVIOInterruptCB = type { ptr, ptr }
%struct.XVContext = type { ptr, ptr, i64, i64, ptr, i32, i32, i32, i32, i32, i32, i32, i32, ptr, ptr, ptr, i32, i32, i32, %struct.XShmSegmentInfo, i32, i64 }
%struct.XShmSegmentInfo = type { i64, i32, ptr, i32 }
%struct.XvImage = type { i32, i32, i32, i32, i32, ptr, ptr, ptr, ptr }
%union._XEvent = type { [24 x i64] }
%struct.XClientMessageEvent = type { i32, i64, i32, ptr, i64, i64, i32, %union.anon.1 }
%union.anon.1 = type { [5 x i64] }

@.str.23 = private unnamed_addr constant [21 x i8] c"Window close event.\0A\00", align 1

; Function Attrs: inlinehint nounwind uwtable
define internal void @av_image_copy2(ptr noundef %0, ptr noundef %1, ptr noundef %2, ptr noundef %3, i32 noundef %4, i32 noundef %5, i32 noundef %6) #6 {
  %8 = alloca ptr, align 8
  %9 = alloca ptr, align 8
  %10 = alloca ptr, align 8
  %11 = alloca ptr, align 8
  %12 = alloca i32, align 4
  %13 = alloca i32, align 4
  %14 = alloca i32, align 4
  store ptr %0, ptr %8, align 8, !tbaa !115
  store ptr %1, ptr %9, align 8, !tbaa !117
  store ptr %2, ptr %10, align 8, !tbaa !115
  store ptr %3, ptr %11, align 8, !tbaa !117
  store i32 %4, ptr %12, align 4, !tbaa !27
  store i32 %5, ptr %13, align 4, !tbaa !27
  store i32 %6, ptr %14, align 4, !tbaa !27
  %15 = load ptr, ptr %8, align 8, !tbaa !115
  %16 = load ptr, ptr %9, align 8, !tbaa !117
  %17 = load ptr, ptr %10, align 8, !tbaa !115
  %18 = load ptr, ptr %11, align 8, !tbaa !117
  %19 = load i32, ptr %12, align 4, !tbaa !27
  %20 = load i32, ptr %13, align 4, !tbaa !27
  %21 = load i32, ptr %14, align 4, !tbaa !27
  call void @av_image_copy(ptr noundef %15, ptr noundef %16, ptr noundef %17, ptr noundef %18, i32 noundef %19, i32 noundef %20, i32 noundef %21)
  ret void
}

; Function Attrs: nounwind uwtable
define internal i32 @write_picture(ptr noundef %0, ptr noundef %1, ptr noundef %2) #0 {
  %4 = alloca i32, align 4
  %5 = alloca ptr, align 8
  %6 = alloca ptr, align 8
  %7 = alloca ptr, align 8
  %8 = alloca ptr, align 8
  %9 = alloca ptr, align 8
  %10 = alloca [4 x ptr], align 16
  %11 = alloca %union._XEvent, align 8
  %12 = alloca i32, align 4
  store ptr %0, ptr %5, align 8, !tbaa !4
  store ptr %1, ptr %6, align 8, !tbaa !115
  store ptr %2, ptr %7, align 8, !tbaa !117
  call void @llvm.lifetime.start.p0(i64 8, ptr %8) #7
  %13 = load ptr, ptr %5, align 8, !tbaa !4
  %14 = getelementptr inbounds nuw %struct.AVFormatContext, ptr %13, i32 0, i32 3
  %15 = load ptr, ptr %14, align 8, !tbaa !9
  store ptr %15, ptr %8, align 8, !tbaa !26
  call void @llvm.lifetime.start.p0(i64 8, ptr %9) #7
  %16 = load ptr, ptr %8, align 8, !tbaa !26
  %17 = getelementptr inbounds nuw %struct.XVContext, ptr %16, i32 0, i32 15
  %18 = load ptr, ptr %17, align 8, !tbaa !84
  store ptr %18, ptr %9, align 8, !tbaa !26
  call void @llvm.lifetime.start.p0(i64 32, ptr %10) #7
  %19 = load ptr, ptr %9, align 8, !tbaa !26
  %20 = getelementptr inbounds nuw %struct.XvImage, ptr %19, i32 0, i32 7
  %21 = load ptr, ptr %20, align 8, !tbaa !90
  %22 = load ptr, ptr %9, align 8, !tbaa !26
  %23 = getelementptr inbounds nuw %struct.XvImage, ptr %22, i32 0, i32 6
  %24 = load ptr, ptr %23, align 8, !tbaa !118
  %25 = getelementptr inbounds i32, ptr %24, i64 0
  %26 = load i32, ptr %25, align 4, !tbaa !27
  %27 = sext i32 %26 to i64
  %28 = getelementptr inbounds i8, ptr %21, i64 %27
  store ptr %28, ptr %10, align 8, !tbaa !119
  %29 = getelementptr inbounds ptr, ptr %10, i64 1
  %30 = load ptr, ptr %9, align 8, !tbaa !26
  %31 = getelementptr inbounds nuw %struct.XvImage, ptr %30, i32 0, i32 7
  %32 = load ptr, ptr %31, align 8, !tbaa !90
  %33 = load ptr, ptr %9, align 8, !tbaa !26
  %34 = getelementptr inbounds nuw %struct.XvImage, ptr %33, i32 0, i32 6
  %35 = load ptr, ptr %34, align 8, !tbaa !118
  %36 = getelementptr inbounds i32, ptr %35, i64 1
  %37 = load i32, ptr %36, align 4, !tbaa !27
  %38 = sext i32 %37 to i64
  %39 = getelementptr inbounds i8, ptr %32, i64 %38
  store ptr %39, ptr %29, align 8, !tbaa !119
  %40 = getelementptr inbounds ptr, ptr %10, i64 2
  %41 = load ptr, ptr %9, align 8, !tbaa !26
  %42 = getelementptr inbounds nuw %struct.XvImage, ptr %41, i32 0, i32 7
  %43 = load ptr, ptr %42, align 8, !tbaa !90
  %44 = load ptr, ptr %9, align 8, !tbaa !26
  %45 = getelementptr inbounds nuw %struct.XvImage, ptr %44, i32 0, i32 6
  %46 = load ptr, ptr %45, align 8, !tbaa !118
  %47 = getelementptr inbounds i32, ptr %46, i64 2
  %48 = load i32, ptr %47, align 4, !tbaa !27
  %49 = sext i32 %48 to i64
  %50 = getelementptr inbounds i8, ptr %43, i64 %49
  store ptr %50, ptr %40, align 8, !tbaa !119
  %51 = getelementptr inbounds ptr, ptr %10, i64 3
  %52 = getelementptr inbounds ptr, ptr %10, i64 4
  br label %53

53:                                               ; preds = %53, %3
  %54 = phi ptr [ %51, %3 ], [ %55, %53 ]
  store ptr null, ptr %54, align 8, !tbaa !119
  %55 = getelementptr inbounds ptr, ptr %54, i64 1
  %56 = icmp eq ptr %55, %52
  br i1 %56, label %57, label %53

57:                                               ; preds = %53
  %58 = load ptr, ptr %8, align 8, !tbaa !26
  %59 = getelementptr inbounds nuw %struct.XVContext, ptr %58, i32 0, i32 3
  %60 = load i64, ptr %59, align 8, !tbaa !61
  %61 = icmp ne i64 %60, 0
  br i1 %61, label %91, label %62

62:                                               ; preds = %57
  call void @llvm.lifetime.start.p0(i64 192, ptr %11) #7
  br label %63

63:                                               ; preds = %86, %62
  %64 = load ptr, ptr %8, align 8, !tbaa !26
  %65 = getelementptr inbounds nuw %struct.XVContext, ptr %64, i32 0, i32 13
  %66 = load ptr, ptr %65, align 8, !tbaa !51
  %67 = call i32 @XPending(ptr noundef %66)
  %68 = icmp ne i32 %67, 0
  br i1 %68, label %69, label %87

69:                                               ; preds = %63
  %70 = load ptr, ptr %8, align 8, !tbaa !26
  %71 = getelementptr inbounds nuw %struct.XVContext, ptr %70, i32 0, i32 13
  %72 = load ptr, ptr %71, align 8, !tbaa !51
  %73 = call i32 @XNextEvent(ptr noundef %72, ptr noundef %11)
  %74 = load i32, ptr %11, align 8, !tbaa !120
  %75 = icmp eq i32 %74, 33
  br i1 %75, label %76, label %86

76:                                               ; preds = %69
  %77 = getelementptr inbounds nuw %struct.XClientMessageEvent, ptr %11, i32 0, i32 7
  %78 = getelementptr inbounds [5 x i64], ptr %77, i64 0, i64 0
  %79 = load i64, ptr %78, align 8, !tbaa !120
  %80 = load ptr, ptr %8, align 8, !tbaa !26
  %81 = getelementptr inbounds nuw %struct.XVContext, ptr %80, i32 0, i32 21
  %82 = load i64, ptr %81, align 8, !tbaa !75
  %83 = icmp eq i64 %79, %82
  br i1 %83, label %84, label %86

84:                                               ; preds = %76
  %85 = load ptr, ptr %8, align 8, !tbaa !26
  call void (ptr, i32, ptr, ...) @av_log(ptr noundef %85, i32 noundef 48, ptr noundef @.str.23)
  store i32 -32, ptr %4, align 4
  store i32 1, ptr %12, align 4
  br label %88

86:                                               ; preds = %76, %69
  br label %63, !llvm.loop !121

87:                                               ; preds = %63
  store i32 0, ptr %12, align 4
  br label %88

88:                                               ; preds = %87, %84
  call void @llvm.lifetime.end.p0(i64 192, ptr %11) #7
  %89 = load i32, ptr %12, align 4
  switch i32 %89, label %109 [
    i32 0, label %90
  ]

90:                                               ; preds = %88
  br label %91

91:                                               ; preds = %90, %57
  %92 = getelementptr inbounds [4 x ptr], ptr %10, i64 0, i64 0
  %93 = load ptr, ptr %9, align 8, !tbaa !26
  %94 = getelementptr inbounds nuw %struct.XvImage, ptr %93, i32 0, i32 5
  %95 = load ptr, ptr %94, align 8, !tbaa !122
  %96 = load ptr, ptr %6, align 8, !tbaa !115
  %97 = load ptr, ptr %7, align 8, !tbaa !117
  %98 = load ptr, ptr %8, align 8, !tbaa !26
  %99 = getelementptr inbounds nuw %struct.XVContext, ptr %98, i32 0, i32 16
  %100 = load i32, ptr %99, align 8, !tbaa !45
  %101 = load ptr, ptr %9, align 8, !tbaa !26
  %102 = getelementptr inbounds nuw %struct.XvImage, ptr %101, i32 0, i32 1
  %103 = load i32, ptr %102, align 4, !tbaa !123
  %104 = load ptr, ptr %9, align 8, !tbaa !26
  %105 = getelementptr inbounds nuw %struct.XvImage, ptr %104, i32 0, i32 2
  %106 = load i32, ptr %105, align 8, !tbaa !124
  call void @av_image_copy2(ptr noundef %92, ptr noundef %95, ptr noundef %96, ptr noundef %97, i32 noundef %100, i32 noundef %103, i32 noundef %106)
  %107 = load ptr, ptr %5, align 8, !tbaa !4
  %108 = call i32 @xv_repaint(ptr noundef %107)
  store i32 %108, ptr %4, align 4
  store i32 1, ptr %12, align 4
  br label %109

109:                                              ; preds = %91, %88
  call void @llvm.lifetime.end.p0(i64 32, ptr %10) #7
  call void @llvm.lifetime.end.p0(i64 8, ptr %9) #7
  call void @llvm.lifetime.end.p0(i64 8, ptr %8) #7
  %110 = load i32, ptr %4, align 4
  ret i32 %110
}