; Function Attrs: nounwind uwtable
define internal fastcc range(i32 -542398533, 1) i32 @write_picture(ptr noundef %0, ptr noundef %1, ptr noundef %2) unnamed_addr #0 {
  %4 = alloca [4 x ptr], align 16
  %5 = alloca %union._XEvent, align 8
  %6 = getelementptr inbounds nuw i8, ptr %0, i64 24
  %7 = load ptr, ptr %6, align 8, !tbaa !4
  %8 = getelementptr inbounds nuw i8, ptr %7, i64 88
  %9 = load ptr, ptr %8, align 8, !tbaa !82
  call void @llvm.lifetime.start.p0(i64 32, ptr nonnull %4) #5
  %10 = getelementptr inbounds nuw i8, ptr %9, i64 40
  %11 = load ptr, ptr %10, align 8, !tbaa !88
  %12 = getelementptr inbounds nuw i8, ptr %9, i64 32
  %13 = load ptr, ptr %12, align 8, !tbaa !102
  %14 = load i32, ptr %13, align 4, !tbaa !24
  %15 = sext i32 %14 to i64
  %16 = getelementptr inbounds i8, ptr %11, i64 %15
  store ptr %16, ptr %4, align 16, !tbaa !103
  %17 = getelementptr inbounds nuw i8, ptr %4, i64 8
  %18 = getelementptr inbounds nuw i8, ptr %13, i64 4
  %19 = load i32, ptr %18, align 4, !tbaa !24
  %20 = sext i32 %19 to i64
  %21 = getelementptr inbounds i8, ptr %11, i64 %20
  store ptr %21, ptr %17, align 8, !tbaa !103
  %22 = getelementptr inbounds nuw i8, ptr %4, i64 16
  %23 = getelementptr inbounds nuw i8, ptr %13, i64 8
  %24 = load i32, ptr %23, align 4, !tbaa !24
  %25 = sext i32 %24 to i64
  %26 = getelementptr inbounds i8, ptr %11, i64 %25
  store ptr %26, ptr %22, align 16, !tbaa !103
  %.ptr = getelementptr inbounds nuw i8, ptr %4, i64 24
  store ptr null, ptr %.ptr, align 8, !tbaa !103
  %27 = getelementptr inbounds nuw i8, ptr %7, i64 24
  %28 = load i64, ptr %27, align 8, !tbaa !59
  %.not = icmp eq i64 %28, 0
  br i1 %.not, label %29, label %48

29:                                               ; preds = %3
  call void @llvm.lifetime.start.p0(i64 192, ptr nonnull %5) #5
  %30 = getelementptr inbounds nuw i8, ptr %7, i64 72
  %31 = load ptr, ptr %30, align 8, !tbaa !52
  %32 = tail call i32 @XPending(ptr noundef %31) #5
  %.not2425 = icmp eq i32 %32, 0
  br i1 %.not2425, label %.critedge, label %.lr.ph

.lr.ph:                                           ; preds = %29
  %33 = getelementptr inbounds nuw i8, ptr %5, i64 56
  %34 = getelementptr inbounds nuw i8, ptr %7, i64 152
  br label %35

35:                                               ; preds = %.lr.ph, %45
  %36 = load ptr, ptr %30, align 8, !tbaa !52
  %37 = call i32 @XNextEvent(ptr noundef %36, ptr noundef nonnull %5) #5
  %38 = load i32, ptr %5, align 8, !tbaa !104
  %39 = icmp eq i32 %38, 33
  br i1 %39, label %40, label %45

40:                                               ; preds = %35
  %41 = load i64, ptr %33, align 8, !tbaa !104
  %42 = load i64, ptr %34, align 8, !tbaa !73
  %43 = icmp eq i64 %41, %42
  br i1 %43, label %44, label %45

44:                                               ; preds = %40
  call void (ptr, i32, ptr, ...) @av_log(ptr noundef nonnull %7, i32 noundef 48, ptr noundef nonnull @.str.23) #5
  call void @llvm.lifetime.end.p0(i64 192, ptr nonnull %5) #5
  br label %58

45:                                               ; preds = %40, %35
  %46 = load ptr, ptr %30, align 8, !tbaa !52
  %47 = call i32 @XPending(ptr noundef %46) #5
  %.not24 = icmp eq i32 %47, 0
  br i1 %.not24, label %.critedge, label %35, !llvm.loop !105

.critedge:                                        ; preds = %45, %29
  call void @llvm.lifetime.end.p0(i64 192, ptr nonnull %5) #5
  br label %48

48:                                               ; preds = %.critedge, %3
  %49 = getelementptr inbounds nuw i8, ptr %9, i64 24
  %50 = load ptr, ptr %49, align 8, !tbaa !106
  %51 = getelementptr inbounds nuw i8, ptr %7, i64 96
  %52 = load i32, ptr %51, align 8, !tbaa !46
  %53 = getelementptr inbounds nuw i8, ptr %9, i64 4
  %54 = load i32, ptr %53, align 4, !tbaa !107
  %55 = getelementptr inbounds nuw i8, ptr %9, i64 8
  %56 = load i32, ptr %55, align 8, !tbaa !108
  call void @av_image_copy(ptr noundef nonnull %4, ptr noundef %50, ptr noundef %1, ptr noundef %2, i32 noundef %52, i32 noundef %54, i32 noundef %56) #5
  %57 = call fastcc i32 @xv_repaint(ptr noundef %0)
  br label %58

58:                                               ; preds = %44, %48
  %.1 = phi i32 [ %57, %48 ], [ -32, %44 ]
  call void @llvm.lifetime.end.p0(i64 32, ptr nonnull %4) #5
  ret i32 %.1
}